target datalayout = "e-m:e-p270:32:32-p271:32:32-p272:64:64-i64:64-i128:128-f80:128-n8:16:32:64-S128"
target triple = "x86_64-pc-linux-gnu"

%struct._object = type { %union.anon, ptr }
%union.anon = type { i64 }
%struct.PyInterpreterConfig = type { i32, i32, i32, i32, i32, i32, i32 }
%struct.PyCompilerFlags = type { i32, i32 }
%struct.PyStatus = type { i32, ptr, ptr, i32 }
%struct.anon = type { i32, i32 }

@PyExc_TypeError = external global ptr, align 8
@.str.237 = private unnamed_addr constant [9 x i8] c"__dict__\00", align 1
@.str.238 = private unnamed_addr constant [14 x i8] c"bad config %R\00", align 1
@PyExc_InterpreterError = external global ptr, align 8
@.str.242 = private unnamed_addr constant [32 x i8] c"sub-interpreter creation failed\00", align 1
@run_in_subinterp_with_config.kwlist = internal global [4 x ptr] [ptr @.str.245, ptr @.str.233, ptr @.str.248, ptr null], align 16
@.str.249 = private unnamed_addr constant [35 x i8] c"sO|$p:run_in_subinterp_with_config\00", align 1

; Function Attrs: alwaysinline nounwind uwtable
define internal i32 @_Py_IsImmortal(ptr noundef %0) #6 {
  %2 = alloca ptr, align 8
  store ptr %0, ptr %2, align 8, !tbaa !3
  %3 = load ptr, ptr %2, align 8, !tbaa !3
  %4 = getelementptr inbounds nuw %struct._object, ptr %3, i32 0, i32 0
  %5 = getelementptr inbounds nuw %struct.anon, ptr %4, i32 0, i32 0
  %6 = load i32, ptr %5, align 8, !tbaa !34
  %7 = icmp slt i32 %6, 0
  %8 = zext i1 %7 to i32
  ret i32 %8
}

; Function Attrs: alwaysinline nounwind uwtable
define internal void @Py_DECREF(ptr noundef %0) #6 {
  %2 = alloca ptr, align 8
  store ptr %0, ptr %2, align 8, !tbaa !3
  %3 = load ptr, ptr %2, align 8, !tbaa !3
  %4 = call i32 @_Py_IsImmortal(ptr noundef %3)
  %5 = icmp ne i32 %4, 0
  br i1 %5, label %6, label %7

6:                                                ; preds = %1
  br label %16

7:                                                ; preds = %1
  %8 = load ptr, ptr %2, align 8, !tbaa !3
  %9 = getelementptr inbounds nuw %struct._object, ptr %8, i32 0, i32 0
  %10 = getelementptr inbounds nuw %struct.anon, ptr %9, i32 0, i32 0
  %11 = load i32, ptr %10, align 8, !tbaa !34
  %12 = add i32 %11, -1
  store i32 %12, ptr %10, align 8, !tbaa !34
  %13 = icmp eq i32 %12, 0
  br i1 %13, label %14, label %16

14:                                               ; preds = %7
  %15 = load ptr, ptr %2, align 8, !tbaa !3
  call void @_Py_Dealloc(ptr noundef %15)
  br label %16

16:                                               ; preds = %6, %14, %7
  ret void
}

; Function Attrs: nounwind uwtable
define internal i32 @_init_interp_config_from_object(ptr noundef %0, ptr noundef %1) #0 {
  %3 = alloca i32, align 4
  %4 = alloca ptr, align 8
  %5 = alloca ptr, align 8
  %6 = alloca %struct.PyInterpreterConfig, align 4
  %7 = alloca ptr, align 8
  %8 = alloca i32, align 4
  %9 = alloca i32, align 4
  store ptr %0, ptr %4, align 8, !tbaa !8
  store ptr %1, ptr %5, align 8, !tbaa !3
  %10 = load ptr, ptr %5, align 8, !tbaa !3
  %11 = icmp eq ptr %10, null
  br i1 %11, label %12, label %21

12:                                               ; preds = %2
  %13 = load ptr, ptr %4, align 8, !tbaa !8
  %14 = getelementptr inbounds nuw %struct.PyInterpreterConfig, ptr %6, i32 0, i32 0
  store i32 0, ptr %14, align 4, !tbaa !276
  %15 = getelementptr inbounds nuw %struct.PyInterpreterConfig, ptr %6, i32 0, i32 1
  store i32 0, ptr %15, align 4, !tbaa !278
  %16 = getelementptr inbounds nuw %struct.PyInterpreterConfig, ptr %6, i32 0, i32 2
  store i32 0, ptr %16, align 4, !tbaa !279
  %17 = getelementptr inbounds nuw %struct.PyInterpreterConfig, ptr %6, i32 0, i32 3
  store i32 1, ptr %17, align 4, !tbaa !280
  %18 = getelementptr inbounds nuw %struct.PyInterpreterConfig, ptr %6, i32 0, i32 4
  store i32 0, ptr %18, align 4, !tbaa !281
  %19 = getelementptr inbounds nuw %struct.PyInterpreterConfig, ptr %6, i32 0, i32 5
  store i32 1, ptr %19, align 4, !tbaa !282
  %20 = getelementptr inbounds nuw %struct.PyInterpreterConfig, ptr %6, i32 0, i32 6
  store i32 2, ptr %20, align 4, !tbaa !283
  call void @llvm.memcpy.p0.p0.i64(ptr align 4 %13, ptr align 4 %6, i64 28, i1 false), !tbaa.struct !284
  store i32 0, ptr %3, align 4
  br label %41

21:                                               ; preds = %2
  call void @llvm.lifetime.start.p0(i64 8, ptr %7) #10
  %22 = load ptr, ptr %5, align 8, !tbaa !3
  %23 = call ptr @PyObject_GetAttrString(ptr noundef %22, ptr noundef @.str.237)
  store ptr %23, ptr %7, align 8, !tbaa !3
  %24 = load ptr, ptr %7, align 8, !tbaa !3
  %25 = icmp eq ptr %24, null
  br i1 %25, label %26, label %30

26:                                               ; preds = %21
  %27 = load ptr, ptr @PyExc_TypeError, align 8, !tbaa !3
  %28 = load ptr, ptr %5, align 8, !tbaa !3
  %29 = call ptr (ptr, ptr, ...) @PyErr_Format(ptr noundef %27, ptr noundef @.str.238, ptr noundef %28)
  store i32 -1, ptr %3, align 4
  store i32 1, ptr %8, align 4
  br label %40

30:                                               ; preds = %21
  call void @llvm.lifetime.start.p0(i64 4, ptr %9) #10
  %31 = load ptr, ptr %4, align 8, !tbaa !8
  %32 = load ptr, ptr %7, align 8, !tbaa !3
  %33 = call i32 @_PyInterpreterConfig_InitFromDict(ptr noundef %31, ptr noundef %32)
  store i32 %33, ptr %9, align 4, !tbaa !26
  %34 = load ptr, ptr %7, align 8, !tbaa !3
  call void @Py_DECREF(ptr noundef %34)
  %35 = load i32, ptr %9, align 4, !tbaa !26
  %36 = icmp slt i32 %35, 0
  br i1 %36, label %37, label %38

37:                                               ; preds = %30
  store i32 -1, ptr %3, align 4
  store i32 1, ptr %8, align 4
  br label %39

38:                                               ; preds = %30
  store i32 0, ptr %3, align 4
  store i32 1, ptr %8, align 4
  br label %39

39:                                               ; preds = %38, %37
  call void @llvm.lifetime.end.p0(i64 4, ptr %9) #10
  br label %40

40:                                               ; preds = %39, %26
  call void @llvm.lifetime.end.p0(i64 8, ptr %7) #10
  br label %41

41:                                               ; preds = %40, %12
  %42 = load i32, ptr %3, align 4
  ret i32 %42
}

; Function Attrs: nounwind uwtable
define internal ptr @run_in_subinterp_with_config(ptr noundef %0, ptr noundef %1, ptr noundef %2) #0 {
  %4 = alloca ptr, align 8
  %5 = alloca ptr, align 8
  %6 = alloca ptr, align 8
  %7 = alloca ptr, align 8
  %8 = alloca ptr, align 8
  %9 = alloca ptr, align 8
  %10 = alloca i32, align 4
  %11 = alloca i32, align 4
  %12 = alloca %struct.PyInterpreterConfig, align 4
  %13 = alloca %struct.PyCompilerFlags, align 4
  %14 = alloca i32, align 4
  %15 = alloca ptr, align 8
  %16 = alloca ptr, align 8
  %17 = alloca ptr, align 8
  %18 = alloca ptr, align 8
  %19 = alloca ptr, align 8
  %20 = alloca %struct.PyStatus, align 8
  %21 = alloca ptr, align 8
  store ptr %0, ptr %5, align 8, !tbaa !3
  store ptr %1, ptr %6, align 8, !tbaa !3
  store ptr %2, ptr %7, align 8, !tbaa !3
  call void @llvm.lifetime.start.p0(i64 8, ptr %8) #10
  call void @llvm.lifetime.start.p0(i64 8, ptr %9) #10
  call void @llvm.lifetime.start.p0(i64 4, ptr %10) #10
  store i32 0, ptr %10, align 4, !tbaa !26
  %22 = load ptr, ptr %6, align 8, !tbaa !3
  %23 = load ptr, ptr %7, align 8, !tbaa !3
  %24 = call i32 (ptr, ptr, ptr, ptr, ...) @PyArg_ParseTupleAndKeywords(ptr noundef %22, ptr noundef %23, ptr noundef @.str.249, ptr noundef @run_in_subinterp_with_config.kwlist, ptr noundef %8, ptr noundef %9, ptr noundef %10)
  %25 = icmp ne i32 %24, 0
  br i1 %25, label %27, label %26

26:                                               ; preds = %3
  store ptr null, ptr %4, align 8
  store i32 1, ptr %11, align 4
  br label %73

27:                                               ; preds = %3
  call void @llvm.lifetime.start.p0(i64 28, ptr %12) #10
  %28 = load ptr, ptr %9, align 8, !tbaa !3
  %29 = call i32 @_init_interp_config_from_object(ptr noundef %12, ptr noundef %28)
  %30 = icmp slt i32 %29, 0
  br i1 %30, label %31, label %32

31:                                               ; preds = %27
  store ptr null, ptr %4, align 8
  store i32 1, ptr %11, align 4
  br label %72

32:                                               ; preds = %27
  call void @llvm.lifetime.start.p0(i64 8, ptr %13) #10
  call void @llvm.memset.p0.i64(ptr align 4 %13, i8 0, i64 8, i1 false)
  call void @llvm.lifetime.start.p0(i64 4, ptr %14) #10
  %33 = load i32, ptr %10, align 4, !tbaa !26
  %34 = icmp ne i32 %33, 0
  br i1 %34, label %35, label %48

35:                                               ; preds = %32
  call void @llvm.lifetime.start.p0(i64 8, ptr %15) #10
  call void @llvm.lifetime.start.p0(i64 8, ptr %16) #10
  call void @llvm.lifetime.start.p0(i64 8, ptr %17) #10
  %36 = call ptr @_PyXI_NewInterpreter(ptr noundef %12, ptr noundef null, ptr noundef %16, ptr noundef %15)
  store ptr %36, ptr %17, align 8, !tbaa !49
  %37 = load ptr, ptr %17, align 8, !tbaa !49
  %38 = icmp eq ptr %37, null
  br i1 %38, label %39, label %40

39:                                               ; preds = %35
  store ptr null, ptr %4, align 8
  store i32 1, ptr %11, align 4
  br label %45

40:                                               ; preds = %35
  %41 = load ptr, ptr %8, align 8, !tbaa !46
  %42 = call i32 @PyRun_SimpleStringFlags(ptr noundef %41, ptr noundef %13)
  store i32 %42, ptr %14, align 4, !tbaa !26
  %43 = load ptr, ptr %17, align 8, !tbaa !49
  %44 = load ptr, ptr %16, align 8, !tbaa !9
  call void @_PyXI_EndInterpreter(ptr noundef %43, ptr noundef %44, ptr noundef %15)
  store i32 0, ptr %11, align 4
  br label %45

45:                                               ; preds = %40, %39
  call void @llvm.lifetime.end.p0(i64 8, ptr %17) #10
  call void @llvm.lifetime.end.p0(i64 8, ptr %16) #10
  call void @llvm.lifetime.end.p0(i64 8, ptr %15) #10
  %46 = load i32, ptr %11, align 4
  switch i32 %46, label %71 [
    i32 0, label %47
  ]

47:                                               ; preds = %45
  br label %67

48:                                               ; preds = %32
  call void @llvm.lifetime.start.p0(i64 8, ptr %18) #10
  call void @llvm.lifetime.start.p0(i64 8, ptr %19) #10
  %49 = call ptr @PyThreadState_Swap(ptr noundef null)
  store ptr %49, ptr %19, align 8, !tbaa !9
  call void @llvm.lifetime.start.p0(i64 32, ptr %20) #10
  call void @Py_NewInterpreterFromConfig(ptr dead_on_unwind writable sret(%struct.PyStatus) align 8 %20, ptr noundef %18, ptr noundef %12)
  %50 = call i32 @PyStatus_Exception(ptr noundef byval(%struct.PyStatus) align 8 %20)
  %51 = icmp ne i32 %50, 0
  br i1 %51, label %52, label %58

52:                                               ; preds = %48
  %53 = load ptr, ptr %19, align 8, !tbaa !9
  %54 = call ptr @PyThreadState_Swap(ptr noundef %53)
  call void @_PyErr_SetFromPyStatus(ptr noundef byval(%struct.PyStatus) align 8 %20)
  call void @llvm.lifetime.start.p0(i64 8, ptr %21) #10
  %55 = call ptr @PyErr_GetRaisedException()
  store ptr %55, ptr %21, align 8, !tbaa !3
  %56 = load ptr, ptr @PyExc_InterpreterError, align 8, !tbaa !3
  call void @PyErr_SetString(ptr noundef %56, ptr noundef @.str.242)
  %57 = load ptr, ptr %21, align 8, !tbaa !3
  call void @_PyErr_ChainExceptions1(ptr noundef %57)
  store ptr null, ptr %4, align 8
  store i32 1, ptr %11, align 4
  call void @llvm.lifetime.end.p0(i64 8, ptr %21) #10
  br label %64

58:                                               ; preds = %48
  %59 = load ptr, ptr %8, align 8, !tbaa !46
  %60 = call i32 @PyRun_SimpleStringFlags(ptr noundef %59, ptr noundef %13)
  store i32 %60, ptr %14, align 4, !tbaa !26
  %61 = load ptr, ptr %18, align 8, !tbaa !9
  call void @Py_EndInterpreter(ptr noundef %61)
  %62 = load ptr, ptr %19, align 8, !tbaa !9
  %63 = call ptr @PyThreadState_Swap(ptr noundef %62)
  store i32 0, ptr %11, align 4
  br label %64

64:                                               ; preds = %58, %52
  call void @llvm.lifetime.end.p0(i64 32, ptr %20) #10
  call void @llvm.lifetime.end.p0(i64 8, ptr %19) #10
  call void @llvm.lifetime.end.p0(i64 8, ptr %18) #10
  %65 = load i32, ptr %11, align 4
  switch i32 %65, label %71 [
    i32 0, label %66
  ]

66:                                               ; preds = %64
  br label %67

67:                                               ; preds = %66, %47
  %68 = load i32, ptr %14, align 4, !tbaa !26
  %69 = sext i32 %68 to i64
  %70 = call ptr @PyLong_FromLong(i64 noundef %69)
  store ptr %70, ptr %4, align 8
  store i32 1, ptr %11, align 4
  br label %71

71:                                               ; preds = %67, %64, %45
  call void @llvm.lifetime.end.p0(i64 4, ptr %14) #10
  call void @llvm.lifetime.end.p0(i64 8, ptr %13) #10
  br label %72

72:                                               ; preds = %71, %31
  call void @llvm.lifetime.end.p0(i64 28, ptr %12) #10
  br label %73

73:                                               ; preds = %72, %26
  call void @llvm.lifetime.end.p0(i64 4, ptr %10) #10
  call void @llvm.lifetime.end.p0(i64 8, ptr %9) #10
  call void @llvm.lifetime.end.p0(i64 8, ptr %8) #10
  %74 = load ptr, ptr %4, align 8
  ret ptr %74
}