; Function Attrs: nounwind uwtable
define internal ptr @run_in_subinterp_with_config(ptr readnone captures(none) %0, ptr noundef %1, ptr noundef %2) #0 {
  %4 = alloca ptr, align 8
  %5 = alloca ptr, align 8
  %6 = alloca i32, align 4
  %7 = alloca %struct.PyInterpreterConfig, align 4
  %8 = alloca %struct.PyCompilerFlags, align 8
  %9 = alloca ptr, align 8
  %10 = alloca ptr, align 8
  %11 = alloca ptr, align 8
  %12 = alloca %struct.PyStatus, align 8
  call void @llvm.lifetime.start.p0(i64 8, ptr nonnull %4) #11
  call void @llvm.lifetime.start.p0(i64 8, ptr nonnull %5) #11
  call void @llvm.lifetime.start.p0(i64 4, ptr nonnull %6) #11
  store i32 0, ptr %6, align 4, !tbaa !25
  %13 = call i32 (ptr, ptr, ptr, ptr, ...) @PyArg_ParseTupleAndKeywords(ptr noundef %1, ptr noundef %2, ptr noundef nonnull @.str.249, ptr noundef nonnull @run_in_subinterp_with_config.kwlist, ptr noundef nonnull %4, ptr noundef nonnull %5, ptr noundef nonnull %6) #11
  %.not = icmp eq i32 %13, 0
  br i1 %.not, label %54, label %14

14:                                               ; preds = %3
  call void @llvm.lifetime.start.p0(i64 28, ptr nonnull %7) #11
  %15 = load ptr, ptr %5, align 8, !tbaa !9
  %16 = icmp eq ptr %15, null
  br i1 %16, label %_init_interp_config_from_object.exit.thread21, label %17

_init_interp_config_from_object.exit.thread21:    ; preds = %14
  store i32 0, ptr %7, align 4, !tbaa !25
  %.sroa.2.0..sroa_idx.i = getelementptr inbounds nuw i8, ptr %7, i64 4
  store i32 0, ptr %.sroa.2.0..sroa_idx.i, align 4, !tbaa !25
  %.sroa.3.0..sroa_idx.i = getelementptr inbounds nuw i8, ptr %7, i64 8
  store i32 0, ptr %.sroa.3.0..sroa_idx.i, align 4, !tbaa !25
  %.sroa.4.0..sroa_idx.i = getelementptr inbounds nuw i8, ptr %7, i64 12
  store i32 1, ptr %.sroa.4.0..sroa_idx.i, align 4, !tbaa !25
  %.sroa.5.0..sroa_idx.i = getelementptr inbounds nuw i8, ptr %7, i64 16
  store i32 0, ptr %.sroa.5.0..sroa_idx.i, align 4, !tbaa !25
  %.sroa.6.0..sroa_idx.i = getelementptr inbounds nuw i8, ptr %7, i64 20
  store i32 1, ptr %.sroa.6.0..sroa_idx.i, align 4, !tbaa !25
  %.sroa.7.0..sroa_idx.i = getelementptr inbounds nuw i8, ptr %7, i64 24
  store i32 2, ptr %.sroa.7.0..sroa_idx.i, align 4, !tbaa !25
  br label %30

17:                                               ; preds = %14
  %18 = call ptr @PyObject_GetAttrString(ptr noundef nonnull %15, ptr noundef nonnull @.str.237) #11
  %19 = icmp eq ptr %18, null
  br i1 %19, label %_init_interp_config_from_object.exit.thread, label %22

_init_interp_config_from_object.exit.thread:      ; preds = %17
  %20 = load ptr, ptr @PyExc_TypeError, align 8, !tbaa !9
  %21 = call ptr (ptr, ptr, ...) @PyErr_Format(ptr noundef %20, ptr noundef nonnull @.str.238, ptr noundef nonnull %15) #11
  br label %53

22:                                               ; preds = %17
  %23 = call i32 @_PyInterpreterConfig_InitFromDict(ptr noundef nonnull %7, ptr noundef nonnull %18) #11
  %24 = load i32, ptr %18, align 8, !tbaa !10
  %.not.i.i = icmp sgt i32 %24, -1
  br i1 %.not.i.i, label %25, label %_init_interp_config_from_object.exit

25:                                               ; preds = %22
  %26 = add nsw i32 %24, -1
  store i32 %26, ptr %18, align 8, !tbaa !10
  %27 = icmp eq i32 %26, 0
  br i1 %27, label %28, label %_init_interp_config_from_object.exit

28:                                               ; preds = %25
  call void @_Py_Dealloc(ptr noundef nonnull %18) #11
  br label %_init_interp_config_from_object.exit

_init_interp_config_from_object.exit:             ; preds = %22, %25, %28
  %29 = icmp slt i32 %23, 0
  br i1 %29, label %53, label %30

30:                                               ; preds = %_init_interp_config_from_object.exit.thread21, %_init_interp_config_from_object.exit
  call void @llvm.lifetime.start.p0(i64 8, ptr nonnull %8) #11
  store i64 0, ptr %8, align 8
  %31 = load i32, ptr %6, align 4, !tbaa !25
  %.not17 = icmp eq i32 %31, 0
  br i1 %.not17, label %38, label %32

32:                                               ; preds = %30
  call void @llvm.lifetime.start.p0(i64 8, ptr nonnull %9) #11
  call void @llvm.lifetime.start.p0(i64 8, ptr nonnull %10) #11
  %33 = call ptr @_PyXI_NewInterpreter(ptr noundef nonnull %7, ptr noundef null, ptr noundef nonnull %10, ptr noundef nonnull %9) #11
  %.not19 = icmp eq ptr %33, null
  br i1 %.not19, label %.thread, label %34

.thread:                                          ; preds = %32
  call void @llvm.lifetime.end.p0(i64 8, ptr nonnull %10) #11
  call void @llvm.lifetime.end.p0(i64 8, ptr nonnull %9) #11
  br label %52

34:                                               ; preds = %32
  %35 = load ptr, ptr %4, align 8, !tbaa !41
  %36 = call i32 @PyRun_SimpleStringFlags(ptr noundef %35, ptr noundef nonnull %8) #11
  %37 = load ptr, ptr %10, align 8, !tbaa !169
  call void @_PyXI_EndInterpreter(ptr noundef nonnull %33, ptr noundef %37, ptr noundef nonnull %9) #11
  call void @llvm.lifetime.end.p0(i64 8, ptr nonnull %10) #11
  call void @llvm.lifetime.end.p0(i64 8, ptr nonnull %9) #11
  br label %49

38:                                               ; preds = %30
  call void @llvm.lifetime.start.p0(i64 8, ptr nonnull %11) #11
  %39 = call ptr @PyThreadState_Swap(ptr noundef null) #11
  call void @llvm.lifetime.start.p0(i64 32, ptr nonnull %12) #11
  call void @Py_NewInterpreterFromConfig(ptr dead_on_unwind nonnull writable sret(%struct.PyStatus) align 8 %12, ptr noundef nonnull %11, ptr noundef nonnull %7) #11
  %40 = call i32 @PyStatus_Exception(ptr noundef nonnull byval(%struct.PyStatus) align 8 %12) #11
  %.not18 = icmp eq i32 %40, 0
  br i1 %.not18, label %.thread24, label %45

.thread24:                                        ; preds = %38
  %41 = load ptr, ptr %4, align 8, !tbaa !41
  %42 = call i32 @PyRun_SimpleStringFlags(ptr noundef %41, ptr noundef nonnull %8) #11
  %43 = load ptr, ptr %11, align 8, !tbaa !169
  call void @Py_EndInterpreter(ptr noundef %43) #11
  %44 = call ptr @PyThreadState_Swap(ptr noundef %39) #11
  call void @llvm.lifetime.end.p0(i64 32, ptr nonnull %12) #11
  call void @llvm.lifetime.end.p0(i64 8, ptr nonnull %11) #11
  br label %49

45:                                               ; preds = %38
  %46 = call ptr @PyThreadState_Swap(ptr noundef %39) #11
  call void @_PyErr_SetFromPyStatus(ptr noundef nonnull byval(%struct.PyStatus) align 8 %12) #11
  %47 = call ptr @PyErr_GetRaisedException() #11
  %48 = load ptr, ptr @PyExc_InterpreterError, align 8, !tbaa !9
  call void @PyErr_SetString(ptr noundef %48, ptr noundef nonnull @.str.242) #11
  call void @_PyErr_ChainExceptions1(ptr noundef %47) #11
  call void @llvm.lifetime.end.p0(i64 32, ptr nonnull %12) #11
  call void @llvm.lifetime.end.p0(i64 8, ptr nonnull %11) #11
  br label %52

49:                                               ; preds = %.thread24, %34
  %.114 = phi i32 [ %36, %34 ], [ %42, %.thread24 ]
  %50 = sext i32 %.114 to i64
  %51 = call ptr @PyLong_FromLong(i64 noundef %50) #11
  br label %52

52:                                               ; preds = %45, %.thread, %49
  %.3 = phi ptr [ %51, %49 ], [ null, %45 ], [ null, %.thread ]
  call void @llvm.lifetime.end.p0(i64 8, ptr nonnull %8) #11
  br label %53

53:                                               ; preds = %_init_interp_config_from_object.exit.thread, %_init_interp_config_from_object.exit, %52
  %.1 = phi ptr [ %.3, %52 ], [ null, %_init_interp_config_from_object.exit ], [ null, %_init_interp_config_from_object.exit.thread ]
  call void @llvm.lifetime.end.p0(i64 28, ptr nonnull %7) #11
  br label %54

54:                                               ; preds = %3, %53
  %.0 = phi ptr [ %.1, %53 ], [ null, %3 ]
  call void @llvm.lifetime.end.p0(i64 4, ptr nonnull %6) #11
  call void @llvm.lifetime.end.p0(i64 8, ptr nonnull %5) #11
  call void @llvm.lifetime.end.p0(i64 8, ptr nonnull %4) #11
  ret ptr %.0
}